target datalayout = "e-m:e-p270:32:32-p271:32:32-p272:64:64-i64:64-i128:128-f80:128-n8:16:32:64-S128"
target triple = "x86_64-unknown-linux-gnu"

%class.btVector3 = type { [4 x float] }
%class.btHingeConstraint = type { %class.btTypedConstraint, [3 x %class.btJacobianEntry], [3 x %class.btJacobianEntry], %class.btTransform, %class.btTransform, float, float, %class.btAngularLimit, float, float, float, float, i8, i8, i8, i8, i8, float, i32, float, float, float, float }
%class.btTypedConstraint = type { ptr, %struct.btTypedObject, i32, %union.anon.0, float, i8, i8, i32, ptr, ptr, float, float, ptr }
%struct.btTypedObject = type { i32 }
%union.anon.0 = type { ptr }
%class.btJacobianEntry = type { %class.btVector3, %class.btVector3, %class.btVector3, %class.btVector3, %class.btVector3, float }
%class.btTransform = type { %class.btMatrix3x3, %class.btVector3 }
%class.btMatrix3x3 = type { [3 x %class.btVector3] }
%class.btAngularLimit = type <{ float, float, float, float, float, float, float, i8, [3 x i8] }>

; Function Attrs: mustprogress uwtable
define linkonce_odr dso_local void @_ZN11btMatrix3x3C2ERKS_(ptr noundef nonnull align 4 dereferenceable(48) %this, ptr noundef nonnull align 4 dereferenceable(48) %other) unnamed_addr #4 comdat align 2 {
entry:
  %this.addr = alloca ptr, align 8
  %other.addr = alloca ptr, align 8
  store ptr %this, ptr %this.addr, align 8
  store ptr %other, ptr %other.addr, align 8
  %this1 = load ptr, ptr %this.addr, align 8
  %m_el = getelementptr inbounds %class.btMatrix3x3, ptr %this1, i32 0, i32 0
  %array.begin = getelementptr inbounds [3 x %class.btVector3], ptr %m_el, i32 0, i32 0
  %arrayctor.end = getelementptr inbounds %class.btVector3, ptr %array.begin, i64 3
  br label %arrayctor.loop

arrayctor.loop:                                   ; preds = %arrayctor.loop, %entry
  %arrayctor.cur = phi ptr [ %array.begin, %entry ], [ %arrayctor.next, %arrayctor.loop ]
  call void @_ZN9btVector3C2Ev(ptr noundef nonnull align 4 dereferenceable(16) %arrayctor.cur)
  %arrayctor.next = getelementptr inbounds %class.btVector3, ptr %arrayctor.cur, i64 1
  %arrayctor.done = icmp eq ptr %arrayctor.next, %arrayctor.end
  br i1 %arrayctor.done, label %arrayctor.cont, label %arrayctor.loop

arrayctor.cont:                                   ; preds = %arrayctor.loop
  %0 = load ptr, ptr %other.addr, align 8
  %m_el2 = getelementptr inbounds %class.btMatrix3x3, ptr %0, i32 0, i32 0
  %arrayidx = getelementptr inbounds [3 x %class.btVector3], ptr %m_el2, i64 0, i64 0
  %m_el3 = getelementptr inbounds %class.btMatrix3x3, ptr %this1, i32 0, i32 0
  %arrayidx4 = getelementptr inbounds [3 x %class.btVector3], ptr %m_el3, i64 0, i64 0
  call void @llvm.memcpy.p0.p0.i64(ptr align 4 %arrayidx4, ptr align 4 %arrayidx, i64 16, i1 false)
  %1 = load ptr, ptr %other.addr, align 8
  %m_el5 = getelementptr inbounds %class.btMatrix3x3, ptr %1, i32 0, i32 0
  %arrayidx6 = getelementptr inbounds [3 x %class.btVector3], ptr %m_el5, i64 0, i64 1
  %m_el7 = getelementptr inbounds %class.btMatrix3x3, ptr %this1, i32 0, i32 0
  %arrayidx8 = getelementptr inbounds [3 x %class.btVector3], ptr %m_el7, i64 0, i64 1
  call void @llvm.memcpy.p0.p0.i64(ptr align 4 %arrayidx8, ptr align 4 %arrayidx6, i64 16, i1 false)
  %2 = load ptr, ptr %other.addr, align 8
  %m_el9 = getelementptr inbounds %class.btMatrix3x3, ptr %2, i32 0, i32 0
  %arrayidx10 = getelementptr inbounds [3 x %class.btVector3], ptr %m_el9, i64 0, i64 2
  %m_el11 = getelementptr inbounds %class.btMatrix3x3, ptr %this1, i32 0, i32 0
  %arrayidx12 = getelementptr inbounds [3 x %class.btVector3], ptr %m_el11, i64 0, i64 2
  call void @llvm.memcpy.p0.p0.i64(ptr align 4 %arrayidx12, ptr align 4 %arrayidx10, i64 16, i1 false)
  ret void
}

; Function Attrs: mustprogress nounwind uwtable
define linkonce_odr dso_local void @_ZN9btVector3C2Ev(ptr noundef nonnull align 4 dereferenceable(16) %this) unnamed_addr #1 comdat align 2 {
entry:
  %this.addr = alloca ptr, align 8
  store ptr %this, ptr %this.addr, align 8
  ret void
}

; Function Attrs: mustprogress nounwind uwtable
define linkonce_odr dso_local void @_ZN17btTypedConstraintD2Ev(ptr noundef nonnull align 8 dereferenceable(72) %this) unnamed_addr #1 comdat align 2 {
entry:
  %this.addr = alloca ptr, align 8
  store ptr %this, ptr %this.addr, align 8
  %this1 = load ptr, ptr %this.addr, align 8
  store ptr getelementptr inbounds ({ [13 x ptr] }, ptr @_ZTV17btTypedConstraint, i32 0, i32 0, i32 2), ptr %this1, align 8
  ret void
}

; Function Attrs: mustprogress nounwind uwtable
define linkonce_odr dso_local void @_ZN14btAngularLimitC2Ev(ptr noundef nonnull align 4 dereferenceable(29) %this) unnamed_addr #1 comdat align 2 {
entry:
  %this.addr = alloca ptr, align 8
  store ptr %this, ptr %this.addr, align 8
  %this1 = load ptr, ptr %this.addr, align 8
  %m_center = getelementptr inbounds %class.btAngularLimit, ptr %this1, i32 0, i32 0
  store float 0.000000e+00, ptr %m_center, align 4
  %m_halfRange = getelementptr inbounds %class.btAngularLimit, ptr %this1, i32 0, i32 1
  store float -1.000000e+00, ptr %m_halfRange, align 4
  %m_softness = getelementptr inbounds %class.btAngularLimit, ptr %this1, i32 0, i32 2
  store float 0x3FECCCCCC0000000, ptr %m_softness, align 4
  %m_biasFactor = getelementptr inbounds %class.btAngularLimit, ptr %this1, i32 0, i32 3
  store float 0x3FD3333340000000, ptr %m_biasFactor, align 4
  %m_relaxationFactor = getelementptr inbounds %class.btAngularLimit, ptr %this1, i32 0, i32 4
  store float 1.000000e+00, ptr %m_relaxationFactor, align 4
  %m_correction = getelementptr inbounds %class.btAngularLimit, ptr %this1, i32 0, i32 5
  store float 0.000000e+00, ptr %m_correction, align 4
  %m_sign = getelementptr inbounds %class.btAngularLimit, ptr %this1, i32 0, i32 6
  store float 0.000000e+00, ptr %m_sign, align 4
  %m_solveLimit = getelementptr inbounds %class.btAngularLimit, ptr %this1, i32 0, i32 7
  store i8 0, ptr %m_solveLimit, align 4
  ret void
}

; Function Attrs: mustprogress uwtable
define linkonce_odr dso_local void @_ZN11btTransformC2ERKS_(ptr noundef nonnull align 4 dereferenceable(64) %this, ptr noundef nonnull align 4 dereferenceable(64) %other) unnamed_addr #4 comdat align 2 {
entry:
  %this.addr = alloca ptr, align 8
  %other.addr = alloca ptr, align 8
  store ptr %this, ptr %this.addr, align 8
  store ptr %other, ptr %other.addr, align 8
  %this1 = load ptr, ptr %this.addr, align 8
  %m_basis = getelementptr inbounds %class.btTransform, ptr %this1, i32 0, i32 0
  %0 = load ptr, ptr %other.addr, align 8
  %m_basis2 = getelementptr inbounds %class.btTransform, ptr %0, i32 0, i32 0
  call void @_ZN11btMatrix3x3C2ERKS_(ptr noundef nonnull align 4 dereferenceable(48) %m_basis, ptr noundef nonnull align 4 dereferenceable(48) %m_basis2)
  %m_origin = getelementptr inbounds %class.btTransform, ptr %this1, i32 0, i32 1
  %1 = load ptr, ptr %other.addr, align 8
  %m_origin3 = getelementptr inbounds %class.btTransform, ptr %1, i32 0, i32 1
  call void @llvm.memcpy.p0.p0.i64(ptr align 4 %m_origin, ptr align 4 %m_origin3, i64 16, i1 false)
  ret void
}

; Function Attrs: mustprogress uwtable
define linkonce_odr dso_local void @_ZN15btJacobianEntryC2Ev(ptr noundef nonnull align 4 dereferenceable(84) %this) unnamed_addr #4 comdat align 2 {
entry:
  %this.addr = alloca ptr, align 8
  store ptr %this, ptr %this.addr, align 8
  %this1 = load ptr, ptr %this.addr, align 8
  %m_linearJointAxis = getelementptr inbounds %class.btJacobianEntry, ptr %this1, i32 0, i32 0
  call void @_ZN9btVector3C2Ev(ptr noundef nonnull align 4 dereferenceable(16) %m_linearJointAxis)
  %m_aJ = getelementptr inbounds %class.btJacobianEntry, ptr %this1, i32 0, i32 1
  call void @_ZN9btVector3C2Ev(ptr noundef nonnull align 4 dereferenceable(16) %m_aJ)
  %m_bJ = getelementptr inbounds %class.btJacobianEntry, ptr %this1, i32 0, i32 2
  call void @_ZN9btVector3C2Ev(ptr noundef nonnull align 4 dereferenceable(16) %m_bJ)
  %m_0MinvJt = getelementptr inbounds %class.btJacobianEntry, ptr %this1, i32 0, i32 3
  call void @_ZN9btVector3C2Ev(ptr noundef nonnull align 4 dereferenceable(16) %m_0MinvJt)
  %m_1MinvJt = getelementptr inbounds %class.btJacobianEntry, ptr %this1, i32 0, i32 4
  call void @_ZN9btVector3C2Ev(ptr noundef nonnull align 4 dereferenceable(16) %m_1MinvJt)
  ret void
}

; Function Attrs: mustprogress uwtable
define dso_local void @_ZN17btHingeConstraintC2ER11btRigidBodyS1_RK11btTransformS4_b(ptr noundef nonnull align 8 dereferenceable(792) %this, ptr noundef nonnull align 8 dereferenceable(744) %rbA, ptr noundef nonnull align 8 dereferenceable(744) %rbB, ptr noundef nonnull align 4 dereferenceable(64) %rbAFrame, ptr noundef nonnull align 4 dereferenceable(64) %rbBFrame, i1 noundef zeroext %useReferenceFrameA) unnamed_addr #4 align 2 personality ptr @__gxx_personality_v0 {
entry:
  %this.addr = alloca ptr, align 8
  %rbA.addr = alloca ptr, align 8
  %rbB.addr = alloca ptr, align 8
  %rbAFrame.addr = alloca ptr, align 8
  %rbBFrame.addr = alloca ptr, align 8
  %useReferenceFrameA.addr = alloca i8, align 1
  %exn.slot = alloca ptr, align 8
  %ehselector.slot = alloca i32, align 4
  store ptr %this, ptr %this.addr, align 8
  store ptr %rbA, ptr %rbA.addr, align 8
  store ptr %rbB, ptr %rbB.addr, align 8
  store ptr %rbAFrame, ptr %rbAFrame.addr, align 8
  store ptr %rbBFrame, ptr %rbBFrame.addr, align 8
  %frombool = zext i1 %useReferenceFrameA to i8
  store i8 %frombool, ptr %useReferenceFrameA.addr, align 1
  %this1 = load ptr, ptr %this.addr, align 8
  %0 = load ptr, ptr %rbA.addr, align 8
  %1 = load ptr, ptr %rbB.addr, align 8
  call void @_ZN17btTypedConstraintC2E21btTypedConstraintTypeR11btRigidBodyS2_(ptr noundef nonnull align 8 dereferenceable(72) %this1, i32 noundef 4, ptr noundef nonnull align 8 dereferenceable(744) %0, ptr noundef nonnull align 8 dereferenceable(744) %1)
  store ptr getelementptr inbounds ({ [14 x ptr] }, ptr @_ZTV17btHingeConstraint, i32 0, i32 0, i32 2), ptr %this1, align 8
  %m_jac = getelementptr inbounds %class.btHingeConstraint, ptr %this1, i32 0, i32 1
  %array.begin = getelementptr inbounds [3 x %class.btJacobianEntry], ptr %m_jac, i32 0, i32 0
  %arrayctor.end = getelementptr inbounds %class.btJacobianEntry, ptr %array.begin, i64 3
  br label %arrayctor.loop

arrayctor.loop:                                   ; preds = %invoke.cont, %entry
  %arrayctor.cur = phi ptr [ %array.begin, %entry ], [ %arrayctor.next, %invoke.cont ]
  invoke void @_ZN15btJacobianEntryC2Ev(ptr noundef nonnull align 4 dereferenceable(84) %arrayctor.cur)
          to label %invoke.cont unwind label %lpad

invoke.cont:                                      ; preds = %arrayctor.loop
  %arrayctor.next = getelementptr inbounds %class.btJacobianEntry, ptr %arrayctor.cur, i64 1
  %arrayctor.done = icmp eq ptr %arrayctor.next, %arrayctor.end
  br i1 %arrayctor.done, label %arrayctor.cont, label %arrayctor.loop

arrayctor.cont:                                   ; preds = %invoke.cont
  %m_jacAng = getelementptr inbounds %class.btHingeConstraint, ptr %this1, i32 0, i32 2
  %array.begin2 = getelementptr inbounds [3 x %class.btJacobianEntry], ptr %m_jacAng, i32 0, i32 0
  %arrayctor.end3 = getelementptr inbounds %class.btJacobianEntry, ptr %array.begin2, i64 3
  br label %arrayctor.loop4

arrayctor.loop4:                                  ; preds = %invoke.cont6, %arrayctor.cont
  %arrayctor.cur5 = phi ptr [ %array.begin2, %arrayctor.cont ], [ %arrayctor.next7, %invoke.cont6 ]
  invoke void @_ZN15btJacobianEntryC2Ev(ptr noundef nonnull align 4 dereferenceable(84) %arrayctor.cur5)
          to label %invoke.cont6 unwind label %lpad

invoke.cont6:                                     ; preds = %arrayctor.loop4
  %arrayctor.next7 = getelementptr inbounds %class.btJacobianEntry, ptr %arrayctor.cur5, i64 1
  %arrayctor.done8 = icmp eq ptr %arrayctor.next7, %arrayctor.end3
  br i1 %arrayctor.done8, label %arrayctor.cont9, label %arrayctor.loop4

arrayctor.cont9:                                  ; preds = %invoke.cont6
  %m_rbAFrame = getelementptr inbounds %class.btHingeConstraint, ptr %this1, i32 0, i32 3
  %2 = load ptr, ptr %rbAFrame.addr, align 8
  invoke void @_ZN11btTransformC2ERKS_(ptr noundef nonnull align 4 dereferenceable(64) %m_rbAFrame, ptr noundef nonnull align 4 dereferenceable(64) %2)
          to label %invoke.cont10 unwind label %lpad

invoke.cont10:                                    ; preds = %arrayctor.cont9
  %m_rbBFrame = getelementptr inbounds %class.btHingeConstraint, ptr %this1, i32 0, i32 4
  %3 = load ptr, ptr %rbBFrame.addr, align 8
  invoke void @_ZN11btTransformC2ERKS_(ptr noundef nonnull align 4 dereferenceable(64) %m_rbBFrame, ptr noundef nonnull align 4 dereferenceable(64) %3)
          to label %invoke.cont11 unwind label %lpad

invoke.cont11:                                    ; preds = %invoke.cont10
  %m_limit = getelementptr inbounds %class.btHingeConstraint, ptr %this1, i32 0, i32 7
  invoke void @_ZN14btAngularLimitC2Ev(ptr noundef nonnull align 4 dereferenceable(29) %m_limit)
          to label %invoke.cont12 unwind label %lpad

invoke.cont12:                                    ; preds = %invoke.cont11
  %m_angularOnly = getelementptr inbounds %class.btHingeConstraint, ptr %this1, i32 0, i32 12
  store i8 0, ptr %m_angularOnly, align 8
  %m_enableAngularMotor = getelementptr inbounds %class.btHingeConstraint, ptr %this1, i32 0, i32 13
  store i8 0, ptr %m_enableAngularMotor, align 1
  %m_useSolveConstraintObsolete = getelementptr inbounds %class.btHingeConstraint, ptr %this1, i32 0, i32 14
  store i8 0, ptr %m_useSolveConstraintObsolete, align 2
  %m_useOffsetForConstraintFrame = getelementptr inbounds %class.btHingeConstraint, ptr %this1, i32 0, i32 15
  store i8 1, ptr %m_useOffsetForConstraintFrame, align 1
  %m_useReferenceFrameA = getelementptr inbounds %class.btHingeConstraint, ptr %this1, i32 0, i32 16
  %4 = load i8, ptr %useReferenceFrameA.addr, align 1
  %tobool = trunc i8 %4 to i1
  %frombool13 = zext i1 %tobool to i8
  store i8 %frombool13, ptr %m_useReferenceFrameA, align 4
  %m_flags = getelementptr inbounds %class.btHingeConstraint, ptr %this1, i32 0, i32 18
  store i32 0, ptr %m_flags, align 4
  %m_normalCFM = getelementptr inbounds %class.btHingeConstraint, ptr %this1, i32 0, i32 19
  store float 0.000000e+00, ptr %m_normalCFM, align 8
  %m_normalERP = getelementptr inbounds %class.btHingeConstraint, ptr %this1, i32 0, i32 20
  store float 0.000000e+00, ptr %m_normalERP, align 4
  %m_stopCFM = getelementptr inbounds %class.btHingeConstraint, ptr %this1, i32 0, i32 21
  store float 0.000000e+00, ptr %m_stopCFM, align 8
  %m_stopERP = getelementptr inbounds %class.btHingeConstraint, ptr %this1, i32 0, i32 22
  store float 0.000000e+00, ptr %m_stopERP, align 4
  %m_useReferenceFrameA14 = getelementptr inbounds %class.btHingeConstraint, ptr %this1, i32 0, i32 16
  %5 = load i8, ptr %m_useReferenceFrameA14, align 4
  %tobool15 = trunc i8 %5 to i1
  %cond = select i1 %tobool15, float -1.000000e+00, float 1.000000e+00
  %m_referenceSign = getelementptr inbounds %class.btHingeConstraint, ptr %this1, i32 0, i32 11
  store float %cond, ptr %m_referenceSign, align 4
  ret void

lpad:                                             ; preds = %invoke.cont11, %invoke.cont10, %arrayctor.cont9, %arrayctor.loop4, %arrayctor.loop
  %6 = landingpad { ptr, i32 }
          cleanup
  %7 = extractvalue { ptr, i32 } %6, 0
  store ptr %7, ptr %exn.slot, align 8
  %8 = extractvalue { ptr, i32 } %6, 1
  store i32 %8, ptr %ehselector.slot, align 4
  call void @_ZN17btTypedConstraintD2Ev(ptr noundef nonnull align 8 dereferenceable(72) %this1) #10
  br label %eh.resume

eh.resume:                                        ; preds = %lpad
  %exn = load ptr, ptr %exn.slot, align 8
  %sel = load i32, ptr %ehselector.slot, align 4
  %lpad.val = insertvalue { ptr, i32 } poison, ptr %exn, 0
  %lpad.val16 = insertvalue { ptr, i32 } %lpad.val, i32 %sel, 1
  resume { ptr, i32 } %lpad.val16
}