; Function Attrs: mustprogress uwtable
define dso_local void @_ZN17btHingeConstraintC2ER11btRigidBodyS1_RK11btTransformS4_b(ptr noundef nonnull align 8 dereferenceable(792) %this, ptr noundef nonnull align 8 dereferenceable(744) %rbA, ptr noundef nonnull align 8 dereferenceable(744) %rbB, ptr nocapture noundef nonnull readonly align 4 dereferenceable(64) %rbAFrame, ptr nocapture noundef nonnull readonly align 4 dereferenceable(64) %rbBFrame, i1 noundef zeroext %useReferenceFrameA) unnamed_addr #4 align 2 personality ptr @__gxx_personality_v0 {
entry:
  tail call void @_ZN17btTypedConstraintC2E21btTypedConstraintTypeR11btRigidBodyS2_(ptr noundef nonnull align 8 dereferenceable(72) %this, i32 noundef 4, ptr noundef nonnull align 8 dereferenceable(744) %rbA, ptr noundef nonnull align 8 dereferenceable(744) %rbB)
  store ptr getelementptr inbounds ({ [14 x ptr] }, ptr @_ZTV17btHingeConstraint, i64 0, i32 0, i64 2), ptr %this, align 8
  %m_rbAFrame = getelementptr inbounds i8, ptr %this, i64 576
  tail call void @llvm.memcpy.p0.p0.i64(ptr noundef nonnull align 8 dereferenceable(16) %m_rbAFrame, ptr noundef nonnull align 4 dereferenceable(16) %rbAFrame, i64 16, i1 false)
  %arrayidx6.i.i = getelementptr inbounds i8, ptr %rbAFrame, i64 16
  %arrayidx8.i.i = getelementptr inbounds i8, ptr %this, i64 592
  tail call void @llvm.memcpy.p0.p0.i64(ptr noundef nonnull align 8 dereferenceable(16) %arrayidx8.i.i, ptr noundef nonnull align 4 dereferenceable(16) %arrayidx6.i.i, i64 16, i1 false)
  %arrayidx10.i.i = getelementptr inbounds i8, ptr %rbAFrame, i64 32
  %arrayidx12.i.i = getelementptr inbounds i8, ptr %this, i64 608
  tail call void @llvm.memcpy.p0.p0.i64(ptr noundef nonnull align 8 dereferenceable(16) %arrayidx12.i.i, ptr noundef nonnull align 4 dereferenceable(16) %arrayidx10.i.i, i64 16, i1 false)
  %m_origin.i = getelementptr inbounds i8, ptr %this, i64 624
  %m_origin3.i = getelementptr inbounds i8, ptr %rbAFrame, i64 48
  tail call void @llvm.memcpy.p0.p0.i64(ptr noundef nonnull align 8 dereferenceable(16) %m_origin.i, ptr noundef nonnull align 4 dereferenceable(16) %m_origin3.i, i64 16, i1 false)
  %m_rbBFrame = getelementptr inbounds i8, ptr %this, i64 640
  tail call void @llvm.memcpy.p0.p0.i64(ptr noundef nonnull align 8 dereferenceable(16) %m_rbBFrame, ptr noundef nonnull align 4 dereferenceable(16) %rbBFrame, i64 16, i1 false)
  %arrayidx6.i.i1 = getelementptr inbounds i8, ptr %rbBFrame, i64 16
  %arrayidx8.i.i2 = getelementptr inbounds i8, ptr %this, i64 656
  tail call void @llvm.memcpy.p0.p0.i64(ptr noundef nonnull align 8 dereferenceable(16) %arrayidx8.i.i2, ptr noundef nonnull align 4 dereferenceable(16) %arrayidx6.i.i1, i64 16, i1 false)
  %arrayidx10.i.i3 = getelementptr inbounds i8, ptr %rbBFrame, i64 32
  %arrayidx12.i.i4 = getelementptr inbounds i8, ptr %this, i64 672
  tail call void @llvm.memcpy.p0.p0.i64(ptr noundef nonnull align 8 dereferenceable(16) %arrayidx12.i.i4, ptr noundef nonnull align 4 dereferenceable(16) %arrayidx10.i.i3, i64 16, i1 false)
  %m_origin.i5 = getelementptr inbounds i8, ptr %this, i64 688
  %m_origin3.i6 = getelementptr inbounds i8, ptr %rbBFrame, i64 48
  tail call void @llvm.memcpy.p0.p0.i64(ptr noundef nonnull align 8 dereferenceable(16) %m_origin.i5, ptr noundef nonnull align 4 dereferenceable(16) %m_origin3.i6, i64 16, i1 false)
  %frombool = zext i1 %useReferenceFrameA to i8
  %m_limit = getelementptr inbounds i8, ptr %this, i64 712
  store <4 x float> <float 0.000000e+00, float -1.000000e+00, float 0x3FECCCCCC0000000, float 0x3FD3333340000000>, ptr %m_limit, align 8
  %m_relaxationFactor.i = getelementptr inbounds i8, ptr %this, i64 728
  store float 1.000000e+00, ptr %m_relaxationFactor.i, align 8
  %m_correction.i = getelementptr inbounds i8, ptr %this, i64 732
  tail call void @llvm.memset.p0.i64(ptr noundef nonnull align 4 dereferenceable(9) %m_correction.i, i8 0, i64 9, i1 false)
  %m_angularOnly = getelementptr inbounds i8, ptr %this, i64 760
  store <4 x i8> <i8 0, i8 0, i8 0, i8 1>, ptr %m_angularOnly, align 8
  %m_useReferenceFrameA = getelementptr inbounds i8, ptr %this, i64 764
  store i8 %frombool, ptr %m_useReferenceFrameA, align 4
  %m_flags = getelementptr inbounds i8, ptr %this, i64 772
  %cond = select i1 %useReferenceFrameA, float -1.000000e+00, float 1.000000e+00
  %m_referenceSign = getelementptr inbounds i8, ptr %this, i64 756
  tail call void @llvm.memset.p0.i64(ptr noundef nonnull align 4 dereferenceable(20) %m_flags, i8 0, i64 20, i1 false)
  store float %cond, ptr %m_referenceSign, align 4
  ret void
}